; Function Attrs: null_pointer_is_valid sspstrong uwtable
define internal fastcc noundef i32 @dissect_edonkey_hash_list(ptr noundef %0, i32 noundef %1, ptr noundef %2) unnamed_addr #0 {
  %4 = alloca ptr, align 8
  %5 = load i32, ptr @hf_edonkey_file_hash, align 4
  %6 = tail call ptr @proto_tree_add_item(ptr noundef %2, i32 noundef %5, ptr noundef %0, i32 noundef %1, i32 noundef 16, i32 noundef 0)
  %7 = add i32 %1, 16
  call void @llvm.lifetime.start.p0(i64 8, ptr nonnull %4) #7
  %8 = tail call zeroext i16 @tvb_get_letohs(ptr noundef %0, i32 noundef %7)
  %9 = zext i16 %8 to i32
  %10 = load i32, ptr @hf_edonkey_list_size, align 4
  %11 = tail call ptr (ptr, i32, ptr, i32, i32, i32, ptr, ...) @proto_tree_add_uint_format(ptr noundef %2, i32 noundef %10, ptr noundef %0, i32 noundef %7, i32 noundef 2, i32 noundef %9, ptr noundef nonnull @.str.418, ptr noundef nonnull @.str.43, i32 noundef %9)
  %12 = add i32 %1, 18
  %.not.i = icmp eq i16 %8, 0
  br i1 %.not.i, label %dissect_edonkey_list.exit, label %.lr.ph.i

.lr.ph.i:                                         ; preds = %3, %.lr.ph.i
  %.04551.i = phi i32 [ %18, %.lr.ph.i ], [ %12, %3 ]
  %.04850.i = phi i32 [ %14, %.lr.ph.i ], [ 0, %3 ]
  %13 = load i32, ptr @ett_edonkey_listitem, align 4
  %14 = add nuw nsw i32 %.04850.i, 1
  %15 = call ptr (ptr, ptr, i32, i32, i32, ptr, ptr, ...) @proto_tree_add_subtree_format(ptr noundef %2, ptr noundef %0, i32 noundef %.04551.i, i32 noundef 1, i32 noundef %13, ptr noundef nonnull %4, ptr noundef nonnull @.str.419, ptr noundef nonnull @.str.43, i32 noundef %14, i32 noundef %9)
  %16 = load i32, ptr @hf_edonkey_hash, align 4
  %17 = call ptr @proto_tree_add_item(ptr noundef %15, i32 noundef %16, ptr noundef %0, i32 noundef %.04551.i, i32 noundef 16, i32 noundef 0)
  %18 = add i32 %.04551.i, 16
  %19 = load ptr, ptr %4, align 8
  call void @proto_item_set_len(ptr noundef %19, i32 noundef 16)
  %exitcond.not.i = icmp eq i32 %14, %9
  br i1 %exitcond.not.i, label %dissect_edonkey_list.exit, label %.lr.ph.i, !llvm.loop !12

dissect_edonkey_list.exit:                        ; preds = %.lr.ph.i, %3
  %.045.lcssa.i = phi i32 [ %12, %3 ], [ %18, %.lr.ph.i ]
  %20 = sub i32 %.045.lcssa.i, %7
  call void @proto_item_set_len(ptr noundef %11, i32 noundef %20)
  call void @llvm.lifetime.end.p0(i64 8, ptr nonnull %4) #7
  ret i32 %.045.lcssa.i
}